; Function Attrs: mustprogress nofree norecurse nosync nounwind willreturn memory(read, argmem: readwrite, inaccessiblemem: none) uwtable
define hidden range(i32 0, 2) i32 @ASN1_const_check_infinite_end(ptr noundef captures(none) %p, i64 noundef %len) local_unnamed_addr #0 {
entry:
  %cmp.i = icmp slt i64 %len, 1
  br i1 %cmp.i, label %_asn1_check_infinite_end.exit, label %if.else.i

if.else.i:                                        ; preds = %entry
  %cmp1.not.i = icmp eq i64 %len, 1
  br i1 %cmp1.not.i, label %_asn1_check_infinite_end.exit, label %land.lhs.true.i

land.lhs.true.i:                                  ; preds = %if.else.i
  %0 = load ptr, ptr %p, align 8
  %1 = load i8, ptr %0, align 1
  %cmp2.i = icmp eq i8 %1, 0
  br i1 %cmp2.i, label %land.lhs.true4.i, label %_asn1_check_infinite_end.exit

land.lhs.true4.i:                                 ; preds = %land.lhs.true.i
  %arrayidx5.i = getelementptr inbounds nuw i8, ptr %0, i64 1
  %2 = load i8, ptr %arrayidx5.i, align 1
  %cmp7.i = icmp eq i8 %2, 0
  br i1 %cmp7.i, label %if.then9.i, label %_asn1_check_infinite_end.exit

if.then9.i:                                       ; preds = %land.lhs.true4.i
  %add.ptr.i = getelementptr inbounds nuw i8, ptr %0, i64 2
  store ptr %add.ptr.i, ptr %p, align 8
  br label %_asn1_check_infinite_end.exit

_asn1_check_infinite_end.exit:                    ; preds = %entry, %if.else.i, %land.lhs.true.i, %land.lhs.true4.i, %if.then9.i
  %retval.0.i = phi i32 [ 1, %if.then9.i ], [ 1, %entry ], [ 0, %if.else.i ], [ 0, %land.lhs.true.i ], [ 0, %land.lhs.true4.i ]
  ret i32 %retval.0.i
}